target datalayout = "e-m:e-p270:32:32-p271:32:32-p272:64:64-i64:64-i128:128-f80:128-n8:16:32:64-S128"
target triple = "x86_64-pc-linux-gnu"

%union.JfrNativeSettings = type { [164 x %struct.jfrNativeEventSetting] }
%struct.jfrNativeEventSetting = type { i64, i64, i8, i8, i8, [5 x i8] }
%class.Representation = type { %class.PairRep }
%class.PairRep = type { i64, i64 }
%class.NoSafepointVerifier = type { ptr }
%class.EventZThreadPhase = type { %class.JfrEvent.base.4, i32, ptr }
%class.JfrEvent.base.4 = type <{ i64, i64, i8, i8, i8 }>
%class.JfrEvent.3 = type <{ i64, i64, i8, i8, i8, [5 x i8] }>
%class.TimeInstant.9 = type { %class.CounterRepresentation }
%class.CounterRepresentation = type { %class.Representation.10 }
%class.Representation.10 = type { i64 }

@_ZN15JfrEventSetting19_jvm_event_settingsE = external global %union.JfrNativeSettings, align 8
@_ZN7JfrTime11_ft_enabledE = external global i8, align 1

; Function Attrs: mustprogress nounwind uwtable
define linkonce_odr hidden void @_ZN14RepresentationI33FastUnorderedElapsedCounterSourceEC2Ev(ptr noundef nonnull align 8 dereferenceable(8) %0) unnamed_addr #1 comdat align 2 {
  %2 = alloca ptr, align 8
  store ptr %0, ptr %2, align 8
  %3 = load ptr, ptr %2, align 8
  %4 = getelementptr inbounds %class.Representation.10, ptr %3, i32 0, i32 0
  store i64 0, ptr %4, align 8
  ret void
}

; Function Attrs: mustprogress nounwind uwtable
define linkonce_odr hidden void @_ZN21CounterRepresentationI33FastUnorderedElapsedCounterSourceEC2Ev(ptr noundef nonnull align 8 dereferenceable(8) %0) unnamed_addr #1 comdat align 2 {
  %2 = alloca ptr, align 8
  store ptr %0, ptr %2, align 8
  %3 = load ptr, ptr %2, align 8
  call void @_ZN14RepresentationI33FastUnorderedElapsedCounterSourceEC2Ev(ptr noundef nonnull align 8 dereferenceable(8) %3)
  ret void
}

; Function Attrs: mustprogress nounwind uwtable
define linkonce_odr hidden noundef nonnull align 8 dereferenceable(24) ptr @_ZN15JfrEventSetting7settingE10JfrEventId(i32 noundef %0) #1 comdat align 2 {
  %2 = alloca i32, align 4
  store i32 %0, ptr %2, align 4
  %3 = load i32, ptr %2, align 4
  %4 = zext i32 %3 to i64
  %5 = getelementptr inbounds [164 x %struct.jfrNativeEventSetting], ptr @_ZN15JfrEventSetting19_jvm_event_settingsE, i64 0, i64 %4
  ret ptr %5
}

; Function Attrs: mustprogress nounwind uwtable
define linkonce_odr hidden noundef i64 @_ZNK21CounterRepresentationI33FastUnorderedElapsedCounterSourceE5valueEv(ptr noundef nonnull align 8 dereferenceable(8) %0) #1 comdat align 2 {
  %2 = alloca ptr, align 8
  store ptr %0, ptr %2, align 8
  %3 = load ptr, ptr %2, align 8
  %4 = getelementptr inbounds %class.Representation.10, ptr %3, i32 0, i32 0
  %5 = load i64, ptr %4, align 8
  ret i64 %5
}

; Function Attrs: mustprogress nounwind uwtable
define linkonce_odr hidden void @_ZN11TimeInstantI21CounterRepresentation33FastUnorderedElapsedCounterSourceE5stampEv(ptr noundef nonnull align 8 dereferenceable(8) %0) #1 comdat align 2 {
  %2 = alloca ptr, align 8
  store ptr %0, ptr %2, align 8
  %3 = load ptr, ptr %2, align 8
  %4 = call noundef i64 @_ZN33FastUnorderedElapsedCounterSource3nowEv()
  %5 = getelementptr inbounds %class.Representation.10, ptr %3, i32 0, i32 0
  store i64 %4, ptr %5, align 8
  ret void
}

; Function Attrs: mustprogress nounwind uwtable
define linkonce_odr hidden void @_ZN11TimeInstantI21CounterRepresentation33FastUnorderedElapsedCounterSourceEC2Ev(ptr noundef nonnull align 8 dereferenceable(8) %0) unnamed_addr #1 comdat align 2 {
  %2 = alloca ptr, align 8
  store ptr %0, ptr %2, align 8
  %3 = load ptr, ptr %2, align 8
  call void @_ZN21CounterRepresentationI33FastUnorderedElapsedCounterSourceEC2Ev(ptr noundef nonnull align 8 dereferenceable(8) %3)
  ret void
}

; Function Attrs: mustprogress nounwind uwtable
define linkonce_odr hidden noundef i64 @_ZN15JfrEventSetting9thresholdE10JfrEventId(i32 noundef %0) #1 comdat align 2 {
  %2 = alloca i32, align 4
  store i32 %0, ptr %2, align 4
  %3 = load i32, ptr %2, align 4
  %4 = call noundef nonnull align 8 dereferenceable(24) ptr @_ZN15JfrEventSetting7settingE10JfrEventId(i32 noundef %3)
  %5 = getelementptr inbounds %struct.jfrNativeEventSetting, ptr %4, i32 0, i32 0
  %6 = load i64, ptr %5, align 8
  ret i64 %6
}

; Function Attrs: mustprogress nounwind uwtable
define linkonce_odr hidden void @_ZN8JfrEventI17EventZThreadPhaseE11set_endtimeERK11TimeInstantI21CounterRepresentation33FastUnorderedElapsedCounterSourceE(ptr noundef nonnull align 8 dereferenceable(19) %0, ptr noundef nonnull align 8 dereferenceable(8) %1) #1 comdat align 2 {
  %3 = alloca ptr, align 8
  %4 = alloca ptr, align 8
  store ptr %0, ptr %3, align 8
  store ptr %1, ptr %4, align 8
  %5 = load ptr, ptr %3, align 8
  %6 = load ptr, ptr %4, align 8
  %7 = call noundef i64 @_ZNK21CounterRepresentationI33FastUnorderedElapsedCounterSourceE5valueEv(ptr noundef nonnull align 8 dereferenceable(8) %6)
  %8 = getelementptr inbounds %class.JfrEvent.3, ptr %5, i32 0, i32 1
  store i64 %7, ptr %8, align 8
  ret void
}

; Function Attrs: mustprogress nounwind uwtable
define linkonce_odr hidden noundef zeroext i1 @_ZN15JfrEventSetting10is_enabledE10JfrEventId(i32 noundef %0) #1 comdat align 2 {
  %2 = alloca i32, align 4
  store i32 %0, ptr %2, align 4
  %3 = load i32, ptr %2, align 4
  %4 = call noundef nonnull align 8 dereferenceable(24) ptr @_ZN15JfrEventSetting7settingE10JfrEventId(i32 noundef %3)
  %5 = getelementptr inbounds %struct.jfrNativeEventSetting, ptr %4, i32 0, i32 3
  %6 = load i8, ptr %5, align 1
  %7 = zext i8 %6 to i32
  %8 = icmp ne i32 0, %7
  ret i1 %8
}

; Function Attrs: mustprogress nounwind uwtable
define linkonce_odr hidden void @_ZN8JfrEventI17EventZThreadPhaseE13set_starttimeERK11TimeInstantI21CounterRepresentation33FastUnorderedElapsedCounterSourceE(ptr noundef nonnull align 8 dereferenceable(19) %0, ptr noundef nonnull align 8 dereferenceable(8) %1) #1 comdat align 2 {
  %3 = alloca ptr, align 8
  %4 = alloca ptr, align 8
  store ptr %0, ptr %3, align 8
  store ptr %1, ptr %4, align 8
  %5 = load ptr, ptr %3, align 8
  %6 = load ptr, ptr %4, align 8
  %7 = call noundef i64 @_ZNK21CounterRepresentationI33FastUnorderedElapsedCounterSourceE5valueEv(ptr noundef nonnull align 8 dereferenceable(8) %6)
  %8 = getelementptr inbounds %class.JfrEvent.3, ptr %5, i32 0, i32 0
  store i64 %7, ptr %8, align 8
  ret void
}

; Function Attrs: mustprogress nounwind uwtable
define linkonce_odr hidden i64 @_ZN11TimeInstantI21CounterRepresentation33FastUnorderedElapsedCounterSourceE3nowEv() #1 comdat align 2 {
  %1 = alloca %class.TimeInstant.9, align 8
  call void @_ZN11TimeInstantI21CounterRepresentation33FastUnorderedElapsedCounterSourceEC2Ev(ptr noundef nonnull align 8 dereferenceable(8) %1)
  call void @_ZN11TimeInstantI21CounterRepresentation33FastUnorderedElapsedCounterSourceE5stampEv(ptr noundef nonnull align 8 dereferenceable(8) %1)
  %2 = getelementptr inbounds %class.TimeInstant.9, ptr %1, i32 0, i32 0
  %3 = getelementptr inbounds %class.CounterRepresentation, ptr %2, i32 0, i32 0
  %4 = getelementptr inbounds %class.Representation.10, ptr %3, i32 0, i32 0
  %5 = load i64, ptr %4, align 8
  ret i64 %5
}

; Function Attrs: mustprogress nounwind uwtable
define linkonce_odr hidden noundef i64 @_ZNK30CompositeCounterRepresentationI29CompositeElapsedCounterSourceE5valueEv(ptr noundef nonnull align 8 dereferenceable(16) %0) #1 comdat align 2 {
  %2 = alloca ptr, align 8
  store ptr %0, ptr %2, align 8
  %3 = load ptr, ptr %2, align 8
  %4 = getelementptr inbounds %class.Representation, ptr %3, i32 0, i32 0
  %5 = getelementptr inbounds %class.PairRep, ptr %4, i32 0, i32 0
  %6 = load i64, ptr %5, align 8
  ret i64 %6
}

; Function Attrs: mustprogress nounwind uwtable
define linkonce_odr hidden noundef i64 @_ZNK30CompositeCounterRepresentationI29CompositeElapsedCounterSourceE8ft_valueEv(ptr noundef nonnull align 8 dereferenceable(16) %0) #1 comdat align 2 {
  %2 = alloca ptr, align 8
  store ptr %0, ptr %2, align 8
  %3 = load ptr, ptr %2, align 8
  %4 = getelementptr inbounds %class.Representation, ptr %3, i32 0, i32 0
  %5 = getelementptr inbounds %class.PairRep, ptr %4, i32 0, i32 1
  %6 = load i64, ptr %5, align 8
  ret i64 %6
}

; Function Attrs: mustprogress nounwind uwtable
define linkonce_odr hidden noundef zeroext i1 @_ZN7JfrTime13is_ft_enabledEv() #1 comdat align 2 {
  %1 = load i8, ptr @_ZN7JfrTime11_ft_enabledE, align 1
  %2 = trunc i8 %1 to i1
  ret i1 %2
}

; Function Attrs: mustprogress nounwind uwtable
define linkonce_odr hidden noundef zeroext i1 @_ZN8JfrEventI17EventZThreadPhaseE8evaluateEv(ptr noundef nonnull align 8 dereferenceable(19) %0) #1 comdat align 2 {
  %2 = alloca i1, align 1
  %3 = alloca ptr, align 8
  %4 = alloca %class.TimeInstant.9, align 8
  %5 = alloca %class.TimeInstant.9, align 8
  store ptr %0, ptr %3, align 8
  %6 = load ptr, ptr %3, align 8
  %7 = getelementptr inbounds %class.JfrEvent.3, ptr %6, i32 0, i32 0
  %8 = load i64, ptr %7, align 8
  %9 = icmp eq i64 %8, 0
  br i1 %9, label %10, label %15

10:                                               ; preds = %1
  %11 = call i64 @_ZN11TimeInstantI21CounterRepresentation33FastUnorderedElapsedCounterSourceE3nowEv()
  %12 = getelementptr inbounds %class.TimeInstant.9, ptr %4, i32 0, i32 0
  %13 = getelementptr inbounds %class.CounterRepresentation, ptr %12, i32 0, i32 0
  %14 = getelementptr inbounds %class.Representation.10, ptr %13, i32 0, i32 0
  store i64 %11, ptr %14, align 8
  call void @_ZN8JfrEventI17EventZThreadPhaseE13set_starttimeERK11TimeInstantI21CounterRepresentation33FastUnorderedElapsedCounterSourceE(ptr noundef nonnull align 8 dereferenceable(19) %6, ptr noundef nonnull align 8 dereferenceable(8) %4)
  br label %25

15:                                               ; preds = %1
  %16 = getelementptr inbounds %class.JfrEvent.3, ptr %6, i32 0, i32 1
  %17 = load i64, ptr %16, align 8
  %18 = icmp eq i64 %17, 0
  br i1 %18, label %19, label %24

19:                                               ; preds = %15
  %20 = call i64 @_ZN11TimeInstantI21CounterRepresentation33FastUnorderedElapsedCounterSourceE3nowEv()
  %21 = getelementptr inbounds %class.TimeInstant.9, ptr %5, i32 0, i32 0
  %22 = getelementptr inbounds %class.CounterRepresentation, ptr %21, i32 0, i32 0
  %23 = getelementptr inbounds %class.Representation.10, ptr %22, i32 0, i32 0
  store i64 %20, ptr %23, align 8
  call void @_ZN8JfrEventI17EventZThreadPhaseE11set_endtimeERK11TimeInstantI21CounterRepresentation33FastUnorderedElapsedCounterSourceE(ptr noundef nonnull align 8 dereferenceable(19) %6, ptr noundef nonnull align 8 dereferenceable(8) %5)
  br label %24

24:                                               ; preds = %19, %15
  br label %25

25:                                               ; preds = %24, %10
  %26 = getelementptr inbounds %class.JfrEvent.3, ptr %6, i32 0, i32 1
  %27 = load i64, ptr %26, align 8
  %28 = getelementptr inbounds %class.JfrEvent.3, ptr %6, i32 0, i32 0
  %29 = load i64, ptr %28, align 8
  %30 = sub nsw i64 %27, %29
  %31 = call noundef i64 @_ZN15JfrEventSetting9thresholdE10JfrEventId(i32 noundef 152)
  %32 = icmp slt i64 %30, %31
  br i1 %32, label %33, label %34

33:                                               ; preds = %25
  store i1 false, ptr %2, align 1
  br label %35

34:                                               ; preds = %25
  store i1 true, ptr %2, align 1
  br label %35

35:                                               ; preds = %34, %33
  %36 = load i1, ptr %2, align 1
  ret i1 %36
}

; Function Attrs: mustprogress nounwind uwtable
define linkonce_odr hidden noundef zeroext i1 @_ZN8JfrEventI17EventZThreadPhaseE10is_enabledEv() #1 comdat align 2 {
  %1 = call noundef zeroext i1 @_ZN15JfrEventSetting10is_enabledE10JfrEventId(i32 noundef 152)
  ret i1 %1
}

; Function Attrs: mustprogress nounwind uwtable
define linkonce_odr hidden void @_ZN8JfrEventI17EventZThreadPhaseEC2E14EventStartTime(ptr noundef nonnull align 8 dereferenceable(19) %0, i32 noundef %1) unnamed_addr #1 comdat align 2 {
  %3 = alloca ptr, align 8
  %4 = alloca i32, align 4
  %5 = alloca %class.TimeInstant.9, align 8
  store ptr %0, ptr %3, align 8
  store i32 %1, ptr %4, align 4
  %6 = load ptr, ptr %3, align 8
  %7 = getelementptr inbounds %class.JfrEvent.3, ptr %6, i32 0, i32 0
  store i64 0, ptr %7, align 8
  %8 = getelementptr inbounds %class.JfrEvent.3, ptr %6, i32 0, i32 1
  store i64 0, ptr %8, align 8
  %9 = getelementptr inbounds %class.JfrEvent.3, ptr %6, i32 0, i32 2
  %10 = load i32, ptr %4, align 4
  %11 = icmp eq i32 %10, 0
  %12 = zext i1 %11 to i8
  store i8 %12, ptr %9, align 8
  %13 = getelementptr inbounds %class.JfrEvent.3, ptr %6, i32 0, i32 3
  store i8 0, ptr %13, align 1
  %14 = getelementptr inbounds %class.JfrEvent.3, ptr %6, i32 0, i32 4
  store i8 0, ptr %14, align 2
  %15 = getelementptr inbounds %class.JfrEvent.3, ptr %6, i32 0, i32 2
  %16 = load i8, ptr %15, align 8
  %17 = trunc i8 %16 to i1
  br i1 %17, label %25, label %18

18:                                               ; preds = %2
  %19 = call noundef zeroext i1 @_ZN8JfrEventI17EventZThreadPhaseE10is_enabledEv()
  br i1 %19, label %20, label %25

20:                                               ; preds = %18
  %21 = call i64 @_ZN11TimeInstantI21CounterRepresentation33FastUnorderedElapsedCounterSourceE3nowEv()
  %22 = getelementptr inbounds %class.TimeInstant.9, ptr %5, i32 0, i32 0
  %23 = getelementptr inbounds %class.CounterRepresentation, ptr %22, i32 0, i32 0
  %24 = getelementptr inbounds %class.Representation.10, ptr %23, i32 0, i32 0
  store i64 %21, ptr %24, align 8
  call void @_ZN8JfrEventI17EventZThreadPhaseE13set_starttimeERK11TimeInstantI21CounterRepresentation33FastUnorderedElapsedCounterSourceE(ptr noundef nonnull align 8 dereferenceable(19) %6, ptr noundef nonnull align 8 dereferenceable(8) %5)
  br label %25

25:                                               ; preds = %20, %18, %2
  ret void
}

; Function Attrs: mustprogress nounwind uwtable
define linkonce_odr hidden void @_ZN19NoSafepointVerifierD2Ev(ptr noundef nonnull align 8 dereferenceable(8) %0) unnamed_addr #1 comdat align 2 {
  %2 = alloca ptr, align 8
  store ptr %0, ptr %2, align 8
  ret void
}

; Function Attrs: mustprogress nounwind uwtable
define linkonce_odr hidden void @_ZN8JfrEventI17EventZThreadPhaseE11set_endtimeERK11TimeInstantI30CompositeCounterRepresentation29CompositeElapsedCounterSourceE(ptr noundef nonnull align 8 dereferenceable(19) %0, ptr noundef nonnull align 8 dereferenceable(16) %1) #1 comdat align 2 {
  %3 = alloca ptr, align 8
  %4 = alloca ptr, align 8
  store ptr %0, ptr %3, align 8
  store ptr %1, ptr %4, align 8
  %5 = load ptr, ptr %3, align 8
  %6 = call noundef zeroext i1 @_ZN7JfrTime13is_ft_enabledEv()
  br i1 %6, label %7, label %10

7:                                                ; preds = %2
  %8 = load ptr, ptr %4, align 8
  %9 = call noundef i64 @_ZNK30CompositeCounterRepresentationI29CompositeElapsedCounterSourceE8ft_valueEv(ptr noundef nonnull align 8 dereferenceable(16) %8)
  br label %13

10:                                               ; preds = %2
  %11 = load ptr, ptr %4, align 8
  %12 = call noundef i64 @_ZNK30CompositeCounterRepresentationI29CompositeElapsedCounterSourceE5valueEv(ptr noundef nonnull align 8 dereferenceable(16) %11)
  br label %13

13:                                               ; preds = %10, %7
  %14 = phi i64 [ %9, %7 ], [ %12, %10 ]
  %15 = getelementptr inbounds %class.JfrEvent.3, ptr %5, i32 0, i32 1
  store i64 %14, ptr %15, align 8
  ret void
}

; Function Attrs: mustprogress nounwind uwtable
define linkonce_odr hidden void @_ZN8JfrEventI17EventZThreadPhaseE13set_starttimeERK11TimeInstantI30CompositeCounterRepresentation29CompositeElapsedCounterSourceE(ptr noundef nonnull align 8 dereferenceable(19) %0, ptr noundef nonnull align 8 dereferenceable(16) %1) #1 comdat align 2 {
  %3 = alloca ptr, align 8
  %4 = alloca ptr, align 8
  store ptr %0, ptr %3, align 8
  store ptr %1, ptr %4, align 8
  %5 = load ptr, ptr %3, align 8
  %6 = call noundef zeroext i1 @_ZN7JfrTime13is_ft_enabledEv()
  br i1 %6, label %7, label %10

7:                                                ; preds = %2
  %8 = load ptr, ptr %4, align 8
  %9 = call noundef i64 @_ZNK30CompositeCounterRepresentationI29CompositeElapsedCounterSourceE8ft_valueEv(ptr noundef nonnull align 8 dereferenceable(16) %8)
  br label %13

10:                                               ; preds = %2
  %11 = load ptr, ptr %4, align 8
  %12 = call noundef i64 @_ZNK30CompositeCounterRepresentationI29CompositeElapsedCounterSourceE5valueEv(ptr noundef nonnull align 8 dereferenceable(16) %11)
  br label %13

13:                                               ; preds = %10, %7
  %14 = phi i64 [ %9, %7 ], [ %12, %10 ]
  %15 = getelementptr inbounds %class.JfrEvent.3, ptr %5, i32 0, i32 0
  store i64 %14, ptr %15, align 8
  ret void
}

; Function Attrs: mustprogress nounwind uwtable
define linkonce_odr hidden void @_ZN17EventZThreadPhase8set_nameEPKc(ptr noundef nonnull align 8 dereferenceable(32) %0, ptr noundef %1) #1 comdat align 2 {
  %3 = alloca ptr, align 8
  %4 = alloca ptr, align 8
  store ptr %0, ptr %3, align 8
  store ptr %1, ptr %4, align 8
  %5 = load ptr, ptr %3, align 8
  %6 = load ptr, ptr %4, align 8
  %7 = getelementptr inbounds %class.EventZThreadPhase, ptr %5, i32 0, i32 2
  store ptr %6, ptr %7, align 8
  ret void
}

; Function Attrs: mustprogress nounwind uwtable
define linkonce_odr hidden void @_ZN17EventZThreadPhase8set_gcIdEj(ptr noundef nonnull align 8 dereferenceable(32) %0, i32 noundef %1) #1 comdat align 2 {
  %3 = alloca ptr, align 8
  %4 = alloca i32, align 4
  store ptr %0, ptr %3, align 8
  store i32 %1, ptr %4, align 4
  %5 = load ptr, ptr %3, align 8
  %6 = load i32, ptr %4, align 4
  %7 = getelementptr inbounds %class.EventZThreadPhase, ptr %5, i32 0, i32 1
  store i32 %6, ptr %7, align 4
  ret void
}

; Function Attrs: mustprogress nounwind uwtable
define linkonce_odr hidden noundef zeroext i1 @_ZN8JfrEventI17EventZThreadPhaseE13should_commitEv(ptr noundef nonnull align 8 dereferenceable(19) %0) #1 comdat align 2 {
  %2 = alloca i1, align 1
  %3 = alloca ptr, align 8
  store ptr %0, ptr %3, align 8
  %4 = load ptr, ptr %3, align 8
  %5 = call noundef zeroext i1 @_ZN8JfrEventI17EventZThreadPhaseE10is_enabledEv()
  br i1 %5, label %7, label %6

6:                                                ; preds = %1
  store i1 false, ptr %2, align 1
  br label %20

7:                                                ; preds = %1
  %8 = getelementptr inbounds %class.JfrEvent.3, ptr %4, i32 0, i32 2
  %9 = load i8, ptr %8, align 8
  %10 = trunc i8 %9 to i1
  br i1 %10, label %11, label %12

11:                                               ; preds = %7
  store i1 true, ptr %2, align 1
  br label %20

12:                                               ; preds = %7
  %13 = call noundef zeroext i1 @_ZN8JfrEventI17EventZThreadPhaseE8evaluateEv(ptr noundef nonnull align 8 dereferenceable(19) %4)
  %14 = getelementptr inbounds %class.JfrEvent.3, ptr %4, i32 0, i32 3
  %15 = zext i1 %13 to i8
  store i8 %15, ptr %14, align 1
  %16 = getelementptr inbounds %class.JfrEvent.3, ptr %4, i32 0, i32 4
  store i8 1, ptr %16, align 2
  %17 = getelementptr inbounds %class.JfrEvent.3, ptr %4, i32 0, i32 3
  %18 = load i8, ptr %17, align 1
  %19 = trunc i8 %18 to i1
  store i1 %19, ptr %2, align 1
  br label %20

20:                                               ; preds = %12, %11, %6
  %21 = load i1, ptr %2, align 1
  ret i1 %21
}

; Function Attrs: mustprogress nounwind uwtable
define linkonce_odr hidden void @_ZN17EventZThreadPhaseC2E14EventStartTime(ptr noundef nonnull align 8 dereferenceable(32) %0, i32 noundef %1) unnamed_addr #1 comdat align 2 {
  %3 = alloca ptr, align 8
  %4 = alloca i32, align 4
  store ptr %0, ptr %3, align 8
  store i32 %1, ptr %4, align 4
  %5 = load ptr, ptr %3, align 8
  %6 = load i32, ptr %4, align 4
  call void @_ZN8JfrEventI17EventZThreadPhaseEC2E14EventStartTime(ptr noundef nonnull align 8 dereferenceable(19) %5, i32 noundef %6)
  ret void
}

; Function Attrs: mustprogress nounwind uwtable
define linkonce_odr hidden void @_ZN19NoSafepointVerifierC2Ev(ptr noundef nonnull align 8 dereferenceable(8) %0) unnamed_addr #1 comdat align 2 {
  %2 = alloca ptr, align 8
  store ptr %0, ptr %2, align 8
  ret void
}

; Function Attrs: mustprogress nounwind uwtable
define hidden void @_ZN7XTracer17send_thread_phaseEPKcRK11TimeInstantI30CompositeCounterRepresentation29CompositeElapsedCounterSourceES7_(ptr noundef nonnull align 8 dereferenceable(80) %0, ptr noundef %1, ptr noundef nonnull align 8 dereferenceable(16) %2, ptr noundef nonnull align 8 dereferenceable(16) %3) #1 align 2 {
  %5 = alloca ptr, align 8
  %6 = alloca ptr, align 8
  %7 = alloca ptr, align 8
  %8 = alloca ptr, align 8
  %9 = alloca %class.NoSafepointVerifier, align 8
  %10 = alloca %class.EventZThreadPhase, align 8
  store ptr %0, ptr %5, align 8
  store ptr %1, ptr %6, align 8
  store ptr %2, ptr %7, align 8
  store ptr %3, ptr %8, align 8
  call void @_ZN19NoSafepointVerifierC2Ev(ptr noundef nonnull align 8 dereferenceable(8) %9)
  call void @_ZN17EventZThreadPhaseC2E14EventStartTime(ptr noundef nonnull align 8 dereferenceable(32) %10, i32 noundef 0)
  %11 = call noundef zeroext i1 @_ZN8JfrEventI17EventZThreadPhaseE13should_commitEv(ptr noundef nonnull align 8 dereferenceable(19) %10)
  br i1 %11, label %12, label %17

12:                                               ; preds = %4
  %13 = call noundef i32 @_ZN4GCId20current_or_undefinedEv()
  call void @_ZN17EventZThreadPhase8set_gcIdEj(ptr noundef nonnull align 8 dereferenceable(32) %10, i32 noundef %13)
  %14 = load ptr, ptr %6, align 8
  call void @_ZN17EventZThreadPhase8set_nameEPKc(ptr noundef nonnull align 8 dereferenceable(32) %10, ptr noundef %14)
  %15 = load ptr, ptr %7, align 8
  call void @_ZN8JfrEventI17EventZThreadPhaseE13set_starttimeERK11TimeInstantI30CompositeCounterRepresentation29CompositeElapsedCounterSourceE(ptr noundef nonnull align 8 dereferenceable(19) %10, ptr noundef nonnull align 8 dereferenceable(16) %15)
  %16 = load ptr, ptr %8, align 8
  call void @_ZN8JfrEventI17EventZThreadPhaseE11set_endtimeERK11TimeInstantI30CompositeCounterRepresentation29CompositeElapsedCounterSourceE(ptr noundef nonnull align 8 dereferenceable(19) %10, ptr noundef nonnull align 8 dereferenceable(16) %16)
  call void @_ZN8JfrEventI17EventZThreadPhaseE6commitEv(ptr noundef nonnull align 8 dereferenceable(19) %10)
  br label %17

17:                                               ; preds = %12, %4
  call void @_ZN19NoSafepointVerifierD2Ev(ptr noundef nonnull align 8 dereferenceable(8) %9) #8
  ret void
}