; Function Attrs: mustprogress nounwind uwtable
define hidden void @_ZN7XTracer17send_thread_phaseEPKcRK11TimeInstantI30CompositeCounterRepresentation29CompositeElapsedCounterSourceES7_(ptr nocapture noundef nonnull readnone align 8 dereferenceable(80) %0, ptr noundef %1, ptr nocapture noundef nonnull readonly align 8 dereferenceable(16) %2, ptr nocapture noundef nonnull readonly align 8 dereferenceable(16) %3) local_unnamed_addr #1 align 2 {
  %5 = alloca %class.EventZThreadPhase, align 8
  %6 = getelementptr inbounds i8, ptr %5, i64 16
  store i8 1, ptr %6, align 8
  %7 = getelementptr inbounds i8, ptr %5, i64 17
  store i8 0, ptr %7, align 1
  %8 = getelementptr inbounds i8, ptr %5, i64 18
  store i8 0, ptr %8, align 2
  %9 = load i8, ptr getelementptr inbounds (i8, ptr @_ZN15JfrEventSetting19_jvm_event_settingsE, i64 3665), align 1
  %.not.i = icmp eq i8 %9, 0
  br i1 %.not.i, label %_ZN8JfrEventI17EventZThreadPhaseE13should_commitEv.exit, label %10

10:                                               ; preds = %4
  %11 = tail call noundef i32 @_ZN4GCId20current_or_undefinedEv() #10
  %12 = getelementptr inbounds i8, ptr %5, i64 20
  store i32 %11, ptr %12, align 4
  %13 = getelementptr inbounds i8, ptr %5, i64 24
  store ptr %1, ptr %13, align 8
  %14 = load i8, ptr @_ZN7JfrTime11_ft_enabledE, align 1
  %15 = trunc i8 %14 to i1
  %16 = getelementptr inbounds i8, ptr %2, i64 8
  %17 = load i64, ptr %16, align 8
  %18 = load i64, ptr %2, align 8
  %19 = select i1 %15, i64 %17, i64 %18
  store i64 %19, ptr %5, align 8
  %20 = getelementptr inbounds i8, ptr %3, i64 8
  %21 = load i64, ptr %20, align 8
  %22 = load i64, ptr %3, align 8
  %23 = select i1 %15, i64 %21, i64 %22
  %24 = getelementptr inbounds i8, ptr %5, i64 8
  store i64 %23, ptr %24, align 8
  call void @_ZN8JfrEventI17EventZThreadPhaseE6commitEv(ptr noundef nonnull align 8 dereferenceable(19) %5)
  br label %_ZN8JfrEventI17EventZThreadPhaseE13should_commitEv.exit

_ZN8JfrEventI17EventZThreadPhaseE13should_commitEv.exit: ; preds = %4, %10
  ret void
}